; Function Attrs: nounwind uwtable
define ptr @l_Lean_Server_ServerTask_waitAny___rarg(ptr noundef %0, ptr readnone captures(none) %1, ptr noundef %2) #0 {
  %4 = tail call ptr @l_List_mapTR_loop___at_Lean_Server_ServerTask_waitAny___spec__1___rarg(ptr noundef %0, ptr noundef nonnull inttoptr (i64 1 to ptr))
  %5 = tail call ptr @lean_io_wait_any(ptr noundef %4, ptr noundef %2) #4
  %6 = ptrtoint ptr %4 to i64
  %7 = and i64 %6, 1
  %.not = icmp eq i64 %7, 0
  br i1 %.not, label %8, label %lean_dec.exit

8:                                                ; preds = %3
  %9 = load i32, ptr %4, align 4, !tbaa !4
  %10 = icmp sgt i32 %9, 1
  br i1 %10, label %11, label %13, !prof !13

11:                                               ; preds = %8
  %12 = add nsw i32 %9, -1
  store i32 %12, ptr %4, align 4, !tbaa !4
  br label %lean_dec.exit

13:                                               ; preds = %8
  %.not.i = icmp eq i32 %9, 0
  br i1 %.not.i, label %lean_dec.exit, label %14

14:                                               ; preds = %13
  tail call void @lean_dec_ref_cold(ptr noundef nonnull %4) #4
  br label %lean_dec.exit

lean_dec.exit:                                    ; preds = %14, %13, %11, %3
  ret ptr %5
}